; Function Attrs: mustprogress uwtable
define noundef nonnull align 8 dereferenceable(8) ptr @_ZN10open_spiellsERSoNS_8GameType8DynamicsE(ptr noundef nonnull align 8 dereferenceable(8) %0, i32 noundef %1) local_unnamed_addr #3 personality ptr @__gxx_personality_v0 {
  %3 = alloca %"class.std::__cxx11::basic_string", align 8
  %4 = alloca %"class.absl::debian2::AlphaNum", align 8
  %5 = alloca %"class.absl::debian2::AlphaNum", align 8
  %6 = icmp ult i32 %1, 3
  br i1 %6, label %switch.lookup, label %_ZN4absl7debian28AlphaNumC2EPKc.exit

_ZN4absl7debian28AlphaNumC2EPKc.exit:             ; preds = %2
  store ptr @.str.78, ptr %4, align 8
  %7 = getelementptr inbounds nuw i8, ptr %4, i64 8
  store i64 18, ptr %7, align 8
  %8 = getelementptr inbounds nuw i8, ptr %5, i64 16
  %9 = call noundef ptr @_ZN4absl7debian216numbers_internal15FastIntToBufferEiPc(i32 noundef %1, ptr noundef nonnull %8)
  %10 = ptrtoint ptr %9 to i64
  %11 = ptrtoint ptr %8 to i64
  %12 = sub i64 %10, %11
  store ptr %8, ptr %5, align 8
  %13 = icmp sgt i64 %12, -1
  br i1 %13, label %_ZN4absl7debian28AlphaNumC2IN10open_spiel8GameType8DynamicsEvEET_.exit, label %14

14:                                               ; preds = %_ZN4absl7debian28AlphaNumC2EPKc.exit
  call void @llvm.trap()
  unreachable

_ZN4absl7debian28AlphaNumC2IN10open_spiel8GameType8DynamicsEvEET_.exit: ; preds = %_ZN4absl7debian28AlphaNumC2EPKc.exit
  %15 = getelementptr inbounds nuw i8, ptr %5, i64 8
  store i64 %12, ptr %15, align 8
  call void @_ZN4absl7debian26StrCatB5cxx11ERKNS0_8AlphaNumES3_(ptr dead_on_unwind nonnull writable sret(%"class.std::__cxx11::basic_string") align 8 %3, ptr noundef nonnull align 8 dereferenceable(48) %4, ptr noundef nonnull align 8 dereferenceable(48) %5)
  invoke void @_ZN10open_spiel15SpielFatalErrorERKNSt7__cxx1112basic_stringIcSt11char_traitsIcESaIcEEE(ptr noundef nonnull align 8 dereferenceable(32) %3) #29
          to label %16 unwind label %17

16:                                               ; preds = %_ZN4absl7debian28AlphaNumC2IN10open_spiel8GameType8DynamicsEvEET_.exit
  unreachable

17:                                               ; preds = %_ZN4absl7debian28AlphaNumC2IN10open_spiel8GameType8DynamicsEvEET_.exit
  %18 = landingpad { ptr, i32 }
          cleanup
  call void @_ZNSt7__cxx1112basic_stringIcSt11char_traitsIcESaIcEED1Ev(ptr noundef nonnull align 8 dereferenceable(32) %3) #28
  resume { ptr, i32 } %18

switch.lookup:                                    ; preds = %2
  %19 = zext nneg i32 %1 to i64
  %switch.gep = getelementptr inbounds nuw [3 x ptr], ptr @switch.table._ZN10open_spiellsERSoNS_8GameType8DynamicsE, i64 0, i64 %19
  %switch.load = load ptr, ptr %switch.gep, align 8
  %20 = tail call noundef nonnull align 8 dereferenceable(8) ptr @_ZStlsISt11char_traitsIcEERSt13basic_ostreamIcT_ES5_PKc(ptr noundef nonnull align 8 dereferenceable(8) %0, ptr noundef nonnull %switch.load)
  ret ptr %20
}